target datalayout = "e-m:e-p270:32:32-p271:32:32-p272:64:64-i64:64-i128:128-f80:128-n8:16:32:64-S128"
target triple = "x86_64-pc-linux-gnu"

%"class.cv::utils::trace::details::Region" = type <{ ptr, i32, [4 x i8] }>
%"class.std::__cxx11::basic_string" = type { %"struct.std::__cxx11::basic_string<char>::_Alloc_hider", i64, %union.anon }
%"struct.std::__cxx11::basic_string<char>::_Alloc_hider" = type { ptr }
%union.anon = type { i64, [8 x i8] }
%"class.std::allocator" = type { i8 }
%"class.cv::Point_" = type { i32, i32 }

@.str.7 = private unnamed_addr constant [130 x i8] c"generated/home/dtcxzyw/WorkSpace/Projects/compilers/llvm-opt-benchmark/bench/opencv/opencv/modules/imgproc/src/morph.dispatch.cpp\00", align 1
@.str.13 = private unnamed_addr constant [13 x i8] c"!src.empty()\00", align 1
@__func__._ZN2cv5erodeERKNS_11_InputArrayERKNS_12_OutputArrayES2_NS_6Point_IiEEiiRKNS_7Scalar_IdEE = private unnamed_addr constant [6 x i8] c"erode\00", align 1

; Function Attrs: mustprogress uwtable
define void @_ZN2cv5erodeERKNS_11_InputArrayERKNS_12_OutputArrayES2_NS_6Point_IiEEiiRKNS_7Scalar_IdEE(ptr noundef nonnull align 8 dereferenceable(24) %0, ptr noundef nonnull align 8 dereferenceable(24) %1, ptr noundef nonnull align 8 dereferenceable(24) %2, i64 %3, i32 noundef %4, i32 noundef %5, ptr noundef nonnull align 8 dereferenceable(32) %6) #4 personality ptr @__gxx_personality_v0 {
  %8 = alloca %"class.cv::Point_", align 4
  %9 = alloca ptr, align 8
  %10 = alloca ptr, align 8
  %11 = alloca ptr, align 8
  %12 = alloca i32, align 4
  %13 = alloca i32, align 4
  %14 = alloca ptr, align 8
  %15 = alloca %"class.cv::utils::trace::details::Region", align 8
  %16 = alloca ptr, align 8
  %17 = alloca i32, align 4
  %18 = alloca %"class.std::__cxx11::basic_string", align 8
  %19 = alloca %"class.std::allocator", align 1
  %20 = alloca %"class.cv::Point_", align 4
  store i64 %3, ptr %8, align 4
  store ptr %0, ptr %9, align 8
  store ptr %1, ptr %10, align 8
  store ptr %2, ptr %11, align 8
  store i32 %4, ptr %12, align 4
  store i32 %5, ptr %13, align 4
  store ptr %6, ptr %14, align 8
  call void @_ZN2cv5utils5trace7details6RegionC1ERKNS3_21LocationStaticStorageE(ptr noundef nonnull align 8 dereferenceable(12) %15, ptr noundef nonnull align 8 dereferenceable(32) @_ZZN2cv5erodeERKNS_11_InputArrayERKNS_12_OutputArrayES2_NS_6Point_IiEEiiRKNS_7Scalar_IdEEE26__cv_trace_location_fn1008)
  br label %21

21:                                               ; preds = %7
  %22 = load ptr, ptr %9, align 8
  %23 = invoke noundef zeroext i1 @_ZNK2cv11_InputArray5emptyEv(ptr noundef nonnull align 8 dereferenceable(24) %22)
          to label %24 unwind label %26

24:                                               ; preds = %21
  br i1 %23, label %30, label %25

25:                                               ; preds = %24
  br label %42

26:                                               ; preds = %44, %21
  %27 = landingpad { ptr, i32 }
          cleanup
  %28 = extractvalue { ptr, i32 } %27, 0
  store ptr %28, ptr %16, align 8
  %29 = extractvalue { ptr, i32 } %27, 1
  store i32 %29, ptr %17, align 4
  br label %53

30:                                               ; preds = %24
  call void @_ZNSaIcEC1Ev(ptr noundef nonnull align 1 dereferenceable(1) %19) #3
  invoke void @_ZNSt7__cxx1112basic_stringIcSt11char_traitsIcESaIcEEC1EPKcRKS3_(ptr noundef nonnull align 8 dereferenceable(32) %18, ptr noundef @.str.13, ptr noundef nonnull align 1 dereferenceable(1) %19)
          to label %31 unwind label %33

31:                                               ; preds = %30
  invoke void @_ZN2cv5errorEiRKNSt7__cxx1112basic_stringIcSt11char_traitsIcESaIcEEEPKcS9_i(i32 noundef -215, ptr noundef nonnull align 8 dereferenceable(32) %18, ptr noundef @__func__._ZN2cv5erodeERKNS_11_InputArrayERKNS_12_OutputArrayES2_NS_6Point_IiEEiiRKNS_7Scalar_IdEE, ptr noundef @.str.7, i32 noundef 1010) #15
          to label %32 unwind label %37

32:                                               ; preds = %31
  unreachable

33:                                               ; preds = %30
  %34 = landingpad { ptr, i32 }
          cleanup
  %35 = extractvalue { ptr, i32 } %34, 0
  store ptr %35, ptr %16, align 8
  %36 = extractvalue { ptr, i32 } %34, 1
  store i32 %36, ptr %17, align 4
  br label %41

37:                                               ; preds = %31
  %38 = landingpad { ptr, i32 }
          cleanup
  %39 = extractvalue { ptr, i32 } %38, 0
  store ptr %39, ptr %16, align 8
  %40 = extractvalue { ptr, i32 } %38, 1
  store i32 %40, ptr %17, align 4
  call void @_ZNSt7__cxx1112basic_stringIcSt11char_traitsIcESaIcEED1Ev(ptr noundef nonnull align 8 dereferenceable(32) %18) #3
  br label %41

41:                                               ; preds = %37, %33
  call void @_ZNSaIcED1Ev(ptr noundef nonnull align 1 dereferenceable(1) %19) #3
  br label %53

42:                                               ; preds = %25
  br label %43

43:                                               ; preds = %42
  br label %44

44:                                               ; preds = %43
  %45 = load ptr, ptr %9, align 8
  %46 = load ptr, ptr %10, align 8
  %47 = load ptr, ptr %11, align 8
  call void @llvm.memcpy.p0.p0.i64(ptr align 4 %20, ptr align 4 %8, i64 8, i1 false)
  %48 = load i32, ptr %12, align 4
  %49 = load i32, ptr %13, align 4
  %50 = load ptr, ptr %14, align 8
  %51 = load i64, ptr %20, align 4
  invoke void @_ZN2cvL7morphOpEiRKNS_11_InputArrayERKNS_12_OutputArrayES2_NS_6Point_IiEEiiRKNS_7Scalar_IdEE(i32 noundef 0, ptr noundef nonnull align 8 dereferenceable(24) %45, ptr noundef nonnull align 8 dereferenceable(24) %46, ptr noundef nonnull align 8 dereferenceable(24) %47, i64 %51, i32 noundef %48, i32 noundef %49, ptr noundef nonnull align 8 dereferenceable(32) %50)
          to label %52 unwind label %26

52:                                               ; preds = %44
  call void @_ZN2cv5utils5trace7details6RegionD2Ev(ptr noundef nonnull align 8 dereferenceable(12) %15) #3
  ret void

53:                                               ; preds = %41, %26
  call void @_ZN2cv5utils5trace7details6RegionD2Ev(ptr noundef nonnull align 8 dereferenceable(12) %15) #3
  br label %54

54:                                               ; preds = %53
  %55 = load ptr, ptr %16, align 8
  %56 = load i32, ptr %17, align 4
  %57 = insertvalue { ptr, i32 } poison, ptr %55, 0
  %58 = insertvalue { ptr, i32 } %57, i32 %56, 1
  resume { ptr, i32 } %58
}